target datalayout = "e-m:e-p270:32:32-p271:32:32-p272:64:64-i64:64-i128:128-f80:128-n8:16:32:64-S128"
target triple = "x86_64-pc-linux-gnu"

%struct.CVodeMemRec = type { ptr, double, ptr, ptr, i32, i32, double, double, ptr, i32, i32, ptr, ptr, i32, [13 x ptr], ptr, ptr, ptr, ptr, ptr, ptr, ptr, ptr, ptr, i32, i32, double, i32, i32, i32, i32, i32, double, double, double, double, double, double, double, double, [14 x double], [6 x double], [13 x double], double, double, double, double, double, double, double, i32, double, i32, i64, i32, i32, i32, double, double, double, double, double, double, double, double, double, double, double, double, i64, i32, i64, i64, i64, i64, i64, i64, i64, i32, double, double, double, i64, i64, i64, i64, ptr, i32, ptr, i32, ptr, ptr, ptr, ptr, ptr, i64, double, i32, i64, double, double, double, i32, double, i32, i32, i32, i32, i32, ptr, i64, i32, [6 x [4 x double]], i32, i64, ptr, i32, ptr, ptr, double, double, double, ptr, ptr, ptr, double, double, i32, i32, i64, ptr, i32, ptr, i32, i32, [13 x double], [13 x double], [13 x ptr], i32 }
%struct._generic_N_Vector = type { ptr, ptr, ptr }
%struct._generic_N_Vector_Ops = type { ptr, ptr, ptr, ptr, ptr, ptr, ptr, ptr, ptr, ptr, ptr, ptr, ptr, ptr, ptr, ptr, ptr, ptr, ptr, ptr, ptr, ptr, ptr, ptr, ptr, ptr, ptr, ptr, ptr, ptr, ptr, ptr, ptr, ptr, ptr, ptr, ptr, ptr, ptr, ptr, ptr, ptr, ptr, ptr, ptr, ptr, ptr, ptr, ptr, ptr, ptr, ptr, ptr, ptr, ptr, ptr }

@.str = private unnamed_addr constant [116 x i8] c"generated/home/dtcxzyw/WorkSpace/Projects/compilers/llvm-opt-benchmark/bench/sundials/sundials/src/cvode/cvode_io.c\00", align 1
@.str.1 = private unnamed_addr constant [26 x i8] c"cvode_mem = NULL illegal.\00", align 1
@__func__.CVodeSetConstraints = private unnamed_addr constant [20 x i8] c"CVodeSetConstraints\00", align 1
@.str.14 = private unnamed_addr constant [48 x i8] c"A required vector operation is not implemented.\00", align 1
@.str.15 = private unnamed_addr constant [38 x i8] c"Illegal values in constraints vector.\00", align 1

; Function Attrs: nounwind uwtable
define i32 @CVodeSetConstraints(ptr noundef %0, ptr noundef %1) #0 {
  %3 = alloca i32, align 4
  %4 = alloca ptr, align 8
  %5 = alloca ptr, align 8
  %6 = alloca ptr, align 8
  %7 = alloca double, align 8
  store ptr %0, ptr %4, align 8
  store ptr %1, ptr %5, align 8
  %8 = load ptr, ptr %4, align 8
  %9 = icmp eq ptr %8, null
  br i1 %9, label %10, label %11

10:                                               ; preds = %2
  call void (ptr, i32, i32, ptr, ptr, ptr, ...) @cvProcessError(ptr noundef null, i32 noundef -21, i32 noundef 936, ptr noundef @__func__.CVodeSetConstraints, ptr noundef @.str, ptr noundef @.str.1)
  store i32 -21, ptr %3, align 4
  br label %123

11:                                               ; preds = %2
  %12 = load ptr, ptr %4, align 8
  store ptr %12, ptr %6, align 8
  %13 = load ptr, ptr %5, align 8
  %14 = icmp eq ptr %13, null
  br i1 %14, label %15, label %43

15:                                               ; preds = %11
  %16 = load ptr, ptr %6, align 8
  %17 = getelementptr inbounds %struct.CVodeMemRec, ptr %16, i32 0, i32 108
  %18 = load i32, ptr %17, align 8
  %19 = icmp ne i32 %18, 0
  br i1 %19, label %20, label %38

20:                                               ; preds = %15
  %21 = load ptr, ptr %6, align 8
  %22 = getelementptr inbounds %struct.CVodeMemRec, ptr %21, i32 0, i32 23
  %23 = load ptr, ptr %22, align 8
  call void @N_VDestroy(ptr noundef %23)
  %24 = load ptr, ptr %6, align 8
  %25 = getelementptr inbounds %struct.CVodeMemRec, ptr %24, i32 0, i32 82
  %26 = load i64, ptr %25, align 8
  %27 = load ptr, ptr %6, align 8
  %28 = getelementptr inbounds %struct.CVodeMemRec, ptr %27, i32 0, i32 84
  %29 = load i64, ptr %28, align 8
  %30 = sub nsw i64 %29, %26
  store i64 %30, ptr %28, align 8
  %31 = load ptr, ptr %6, align 8
  %32 = getelementptr inbounds %struct.CVodeMemRec, ptr %31, i32 0, i32 83
  %33 = load i64, ptr %32, align 8
  %34 = load ptr, ptr %6, align 8
  %35 = getelementptr inbounds %struct.CVodeMemRec, ptr %34, i32 0, i32 85
  %36 = load i64, ptr %35, align 8
  %37 = sub nsw i64 %36, %33
  store i64 %37, ptr %35, align 8
  br label %38

38:                                               ; preds = %20, %15
  %39 = load ptr, ptr %6, align 8
  %40 = getelementptr inbounds %struct.CVodeMemRec, ptr %39, i32 0, i32 108
  store i32 0, ptr %40, align 8
  %41 = load ptr, ptr %6, align 8
  %42 = getelementptr inbounds %struct.CVodeMemRec, ptr %41, i32 0, i32 13
  store i32 0, ptr %42, align 8
  store i32 0, ptr %3, align 4
  br label %123

43:                                               ; preds = %11
  %44 = load ptr, ptr %5, align 8
  %45 = getelementptr inbounds %struct._generic_N_Vector, ptr %44, i32 0, i32 1
  %46 = load ptr, ptr %45, align 8
  %47 = getelementptr inbounds %struct._generic_N_Vector_Ops, ptr %46, i32 0, i32 14
  %48 = load ptr, ptr %47, align 8
  %49 = icmp eq ptr %48, null
  br i1 %49, label %78, label %50

50:                                               ; preds = %43
  %51 = load ptr, ptr %5, align 8
  %52 = getelementptr inbounds %struct._generic_N_Vector, ptr %51, i32 0, i32 1
  %53 = load ptr, ptr %52, align 8
  %54 = getelementptr inbounds %struct._generic_N_Vector_Ops, ptr %53, i32 0, i32 20
  %55 = load ptr, ptr %54, align 8
  %56 = icmp eq ptr %55, null
  br i1 %56, label %78, label %57

57:                                               ; preds = %50
  %58 = load ptr, ptr %5, align 8
  %59 = getelementptr inbounds %struct._generic_N_Vector, ptr %58, i32 0, i32 1
  %60 = load ptr, ptr %59, align 8
  %61 = getelementptr inbounds %struct._generic_N_Vector_Ops, ptr %60, i32 0, i32 26
  %62 = load ptr, ptr %61, align 8
  %63 = icmp eq ptr %62, null
  br i1 %63, label %78, label %64

64:                                               ; preds = %57
  %65 = load ptr, ptr %5, align 8
  %66 = getelementptr inbounds %struct._generic_N_Vector, ptr %65, i32 0, i32 1
  %67 = load ptr, ptr %66, align 8
  %68 = getelementptr inbounds %struct._generic_N_Vector_Ops, ptr %67, i32 0, i32 28
  %69 = load ptr, ptr %68, align 8
  %70 = icmp eq ptr %69, null
  br i1 %70, label %78, label %71

71:                                               ; preds = %64
  %72 = load ptr, ptr %5, align 8
  %73 = getelementptr inbounds %struct._generic_N_Vector, ptr %72, i32 0, i32 1
  %74 = load ptr, ptr %73, align 8
  %75 = getelementptr inbounds %struct._generic_N_Vector_Ops, ptr %74, i32 0, i32 29
  %76 = load ptr, ptr %75, align 8
  %77 = icmp eq ptr %76, null
  br i1 %77, label %78, label %80

78:                                               ; preds = %71, %64, %57, %50, %43
  %79 = load ptr, ptr %6, align 8
  call void (ptr, i32, i32, ptr, ptr, ptr, ...) @cvProcessError(ptr noundef %79, i32 noundef -22, i32 noundef 963, ptr noundef @__func__.CVodeSetConstraints, ptr noundef @.str, ptr noundef @.str.14)
  store i32 -22, ptr %3, align 4
  br label %123

80:                                               ; preds = %71
  %81 = load ptr, ptr %5, align 8
  %82 = call double @N_VMaxNorm(ptr noundef %81)
  store double %82, ptr %7, align 8
  %83 = load double, ptr %7, align 8
  %84 = fcmp ogt double %83, 2.500000e+00
  br i1 %84, label %88, label %85

85:                                               ; preds = %80
  %86 = load double, ptr %7, align 8
  %87 = fcmp olt double %86, 5.000000e-01
  br i1 %87, label %88, label %90

88:                                               ; preds = %85, %80
  %89 = load ptr, ptr %6, align 8
  call void (ptr, i32, i32, ptr, ptr, ptr, ...) @cvProcessError(ptr noundef %89, i32 noundef -22, i32 noundef 972, ptr noundef @__func__.CVodeSetConstraints, ptr noundef @.str, ptr noundef @.str.15)
  store i32 -22, ptr %3, align 4
  br label %123

90:                                               ; preds = %85
  %91 = load ptr, ptr %6, align 8
  %92 = getelementptr inbounds %struct.CVodeMemRec, ptr %91, i32 0, i32 108
  %93 = load i32, ptr %92, align 8
  %94 = icmp ne i32 %93, 0
  br i1 %94, label %116, label %95

95:                                               ; preds = %90
  %96 = load ptr, ptr %5, align 8
  %97 = call ptr @N_VClone(ptr noundef %96)
  %98 = load ptr, ptr %6, align 8
  %99 = getelementptr inbounds %struct.CVodeMemRec, ptr %98, i32 0, i32 23
  store ptr %97, ptr %99, align 8
  %100 = load ptr, ptr %6, align 8
  %101 = getelementptr inbounds %struct.CVodeMemRec, ptr %100, i32 0, i32 82
  %102 = load i64, ptr %101, align 8
  %103 = load ptr, ptr %6, align 8
  %104 = getelementptr inbounds %struct.CVodeMemRec, ptr %103, i32 0, i32 84
  %105 = load i64, ptr %104, align 8
  %106 = add nsw i64 %105, %102
  store i64 %106, ptr %104, align 8
  %107 = load ptr, ptr %6, align 8
  %108 = getelementptr inbounds %struct.CVodeMemRec, ptr %107, i32 0, i32 83
  %109 = load i64, ptr %108, align 8
  %110 = load ptr, ptr %6, align 8
  %111 = getelementptr inbounds %struct.CVodeMemRec, ptr %110, i32 0, i32 85
  %112 = load i64, ptr %111, align 8
  %113 = add nsw i64 %112, %109
  store i64 %113, ptr %111, align 8
  %114 = load ptr, ptr %6, align 8
  %115 = getelementptr inbounds %struct.CVodeMemRec, ptr %114, i32 0, i32 108
  store i32 1, ptr %115, align 8
  br label %116

116:                                              ; preds = %95, %90
  %117 = load ptr, ptr %5, align 8
  %118 = load ptr, ptr %6, align 8
  %119 = getelementptr inbounds %struct.CVodeMemRec, ptr %118, i32 0, i32 23
  %120 = load ptr, ptr %119, align 8
  call void @N_VScale(double noundef 1.000000e+00, ptr noundef %117, ptr noundef %120)
  %121 = load ptr, ptr %6, align 8
  %122 = getelementptr inbounds %struct.CVodeMemRec, ptr %121, i32 0, i32 13
  store i32 1, ptr %122, align 8
  store i32 0, ptr %3, align 4
  br label %123

123:                                              ; preds = %116, %88, %78, %38, %10
  %124 = load i32, ptr %3, align 4
  ret i32 %124
}