; Function Attrs: nounwind uwtable
define range(i32 -22, 1) i32 @CVodeSetConstraints(ptr noundef %0, ptr noundef %1) local_unnamed_addr #0 {
  %3 = icmp eq ptr %0, null
  br i1 %3, label %4, label %5

4:                                                ; preds = %2
  tail call void (ptr, i32, i32, ptr, ptr, ptr, ...) @cvProcessError(ptr noundef null, i32 noundef -21, i32 noundef 936, ptr noundef nonnull @__func__.CVodeSetConstraints, ptr noundef nonnull @.str, ptr noundef nonnull @.str.1) #7
  br label %72

5:                                                ; preds = %2
  %6 = icmp eq ptr %1, null
  br i1 %6, label %7, label %25

7:                                                ; preds = %5
  %8 = getelementptr inbounds nuw i8, ptr %0, i64 1136
  %9 = load i32, ptr %8, align 8
  %.not35 = icmp eq i32 %9, 0
  br i1 %.not35, label %23, label %10

10:                                               ; preds = %7
  %11 = getelementptr inbounds nuw i8, ptr %0, i64 264
  %12 = load ptr, ptr %11, align 8
  tail call void @N_VDestroy(ptr noundef %12) #7
  %13 = getelementptr inbounds nuw i8, ptr %0, i64 944
  %14 = load i64, ptr %13, align 8
  %15 = getelementptr inbounds nuw i8, ptr %0, i64 960
  %16 = load i64, ptr %15, align 8
  %17 = sub nsw i64 %16, %14
  store i64 %17, ptr %15, align 8
  %18 = getelementptr inbounds nuw i8, ptr %0, i64 952
  %19 = load i64, ptr %18, align 8
  %20 = getelementptr inbounds nuw i8, ptr %0, i64 968
  %21 = load i64, ptr %20, align 8
  %22 = sub nsw i64 %21, %19
  store i64 %22, ptr %20, align 8
  br label %23

23:                                               ; preds = %10, %7
  store i32 0, ptr %8, align 8
  %24 = getelementptr inbounds nuw i8, ptr %0, i64 88
  store i32 0, ptr %24, align 8
  br label %72

25:                                               ; preds = %5
  %26 = getelementptr inbounds nuw i8, ptr %1, i64 8
  %27 = load ptr, ptr %26, align 8
  %28 = getelementptr inbounds nuw i8, ptr %27, i64 112
  %29 = load ptr, ptr %28, align 8
  %30 = icmp eq ptr %29, null
  br i1 %30, label %47, label %31

31:                                               ; preds = %25
  %32 = getelementptr inbounds nuw i8, ptr %27, i64 160
  %33 = load ptr, ptr %32, align 8
  %34 = icmp eq ptr %33, null
  br i1 %34, label %47, label %35

35:                                               ; preds = %31
  %36 = getelementptr inbounds nuw i8, ptr %27, i64 208
  %37 = load ptr, ptr %36, align 8
  %38 = icmp eq ptr %37, null
  br i1 %38, label %47, label %39

39:                                               ; preds = %35
  %40 = getelementptr inbounds nuw i8, ptr %27, i64 224
  %41 = load ptr, ptr %40, align 8
  %42 = icmp eq ptr %41, null
  br i1 %42, label %47, label %43

43:                                               ; preds = %39
  %44 = getelementptr inbounds nuw i8, ptr %27, i64 232
  %45 = load ptr, ptr %44, align 8
  %46 = icmp eq ptr %45, null
  br i1 %46, label %47, label %48

47:                                               ; preds = %43, %39, %35, %31, %25
  tail call void (ptr, i32, i32, ptr, ptr, ptr, ...) @cvProcessError(ptr noundef nonnull %0, i32 noundef -22, i32 noundef 963, ptr noundef nonnull @__func__.CVodeSetConstraints, ptr noundef nonnull @.str, ptr noundef nonnull @.str.14) #7
  br label %72

48:                                               ; preds = %43
  %49 = tail call double @N_VMaxNorm(ptr noundef nonnull %1) #7
  %50 = fcmp ogt double %49, 2.500000e+00
  %51 = fcmp olt double %49, 5.000000e-01
  %or.cond = or i1 %50, %51
  br i1 %or.cond, label %52, label %53

52:                                               ; preds = %48
  tail call void (ptr, i32, i32, ptr, ptr, ptr, ...) @cvProcessError(ptr noundef nonnull %0, i32 noundef -22, i32 noundef 972, ptr noundef nonnull @__func__.CVodeSetConstraints, ptr noundef nonnull @.str, ptr noundef nonnull @.str.15) #7
  br label %72

53:                                               ; preds = %48
  %54 = getelementptr inbounds nuw i8, ptr %0, i64 1136
  %55 = load i32, ptr %54, align 8
  %.not = icmp eq i32 %55, 0
  br i1 %.not, label %56, label %._crit_edge

._crit_edge:                                      ; preds = %53
  %.phi.trans.insert = getelementptr inbounds nuw i8, ptr %0, i64 264
  %.pre = load ptr, ptr %.phi.trans.insert, align 8
  br label %69

56:                                               ; preds = %53
  %57 = tail call ptr @N_VClone(ptr noundef nonnull %1) #7
  %58 = getelementptr inbounds nuw i8, ptr %0, i64 264
  store ptr %57, ptr %58, align 8
  %59 = getelementptr inbounds nuw i8, ptr %0, i64 944
  %60 = load i64, ptr %59, align 8
  %61 = getelementptr inbounds nuw i8, ptr %0, i64 960
  %62 = load i64, ptr %61, align 8
  %63 = add nsw i64 %62, %60
  store i64 %63, ptr %61, align 8
  %64 = getelementptr inbounds nuw i8, ptr %0, i64 952
  %65 = load i64, ptr %64, align 8
  %66 = getelementptr inbounds nuw i8, ptr %0, i64 968
  %67 = load i64, ptr %66, align 8
  %68 = add nsw i64 %67, %65
  store i64 %68, ptr %66, align 8
  store i32 1, ptr %54, align 8
  br label %69

69:                                               ; preds = %._crit_edge, %56
  %70 = phi ptr [ %.pre, %._crit_edge ], [ %57, %56 ]
  tail call void @N_VScale(double noundef 1.000000e+00, ptr noundef nonnull %1, ptr noundef %70) #7
  %71 = getelementptr inbounds nuw i8, ptr %0, i64 88
  store i32 1, ptr %71, align 8
  br label %72

72:                                               ; preds = %69, %52, %47, %23, %4
  %.0 = phi i32 [ -21, %4 ], [ 0, %23 ], [ -22, %47 ], [ -22, %52 ], [ 0, %69 ]
  ret i32 %.0
}